target datalayout = "e-m:e-p270:32:32-p271:32:32-p272:64:64-i64:64-i128:128-f80:128-n8:16:32:64-S128"
target triple = "x86_64-pc-linux-gnu"

%"class.std::__shared_count" = type { ptr }
%"class.gmx::analysismodules::(anonymous namespace)::Hbond" = type { %"class.gmx::TrajectoryAnalysisModule", %"class.gmx::Selection", %"class.gmx::Selection", %"class.std::__cxx11::basic_string", %"class.std::__cxx11::basic_string", %"class.std::__cxx11::basic_string", %"class.std::__cxx11::basic_string", %"class.std::__cxx11::basic_string", %"struct.gmx::analysismodules::(anonymous namespace)::t_info", %"struct.gmx::analysismodules::(anonymous namespace)::t_info", i8, i8, i8, i8, float, float, float, %"class.gmx::analysismodules::(anonymous namespace)::HbondStorage", %"class.gmx::AnalysisData", %"class.gmx::AnalysisData", %"class.gmx::AnalysisData", %"class.gmx::AnalysisData", %"class.std::shared_ptr", %"class.std::shared_ptr" }
%"class.gmx::TrajectoryAnalysisModule" = type { ptr, %"class.std::unique_ptr.2" }
%"class.std::unique_ptr.2" = type { %"struct.std::__uniq_ptr_data.3" }
%"struct.std::__uniq_ptr_data.3" = type { %"class.std::__uniq_ptr_impl.4" }
%"class.std::__uniq_ptr_impl.4" = type { %"class.std::tuple.5" }
%"class.std::tuple.5" = type { %"struct.std::_Tuple_impl.6" }
%"struct.std::_Tuple_impl.6" = type { %"struct.std::_Head_base.9" }
%"struct.std::_Head_base.9" = type { ptr }
%"class.gmx::Selection" = type { ptr }
%"class.std::__cxx11::basic_string" = type { %"struct.std::__cxx11::basic_string<char>::_Alloc_hider", i64, %union.anon }
%"struct.std::__cxx11::basic_string<char>::_Alloc_hider" = type { ptr }
%union.anon = type { i64, [8 x i8] }
%"struct.gmx::analysismodules::(anonymous namespace)::t_info" = type { %"class.std::vector", %"class.std::vector.13", ptr, %"class.std::vector.18" }
%"class.std::vector" = type { %"struct.std::_Vector_base" }
%"struct.std::_Vector_base" = type { %"struct.std::_Vector_base<gmx::analysismodules::(anonymous namespace)::t_acceptor, std::allocator<gmx::analysismodules::(anonymous namespace)::t_acceptor>>::_Vector_impl" }
%"struct.std::_Vector_base<gmx::analysismodules::(anonymous namespace)::t_acceptor, std::allocator<gmx::analysismodules::(anonymous namespace)::t_acceptor>>::_Vector_impl" = type { %"struct.std::_Vector_base<gmx::analysismodules::(anonymous namespace)::t_acceptor, std::allocator<gmx::analysismodules::(anonymous namespace)::t_acceptor>>::_Vector_impl_data" }
%"struct.std::_Vector_base<gmx::analysismodules::(anonymous namespace)::t_acceptor, std::allocator<gmx::analysismodules::(anonymous namespace)::t_acceptor>>::_Vector_impl_data" = type { ptr, ptr, ptr }
%"class.std::vector.13" = type { %"struct.std::_Vector_base.14" }
%"struct.std::_Vector_base.14" = type { %"struct.std::_Vector_base<gmx::analysismodules::(anonymous namespace)::t_donor, std::allocator<gmx::analysismodules::(anonymous namespace)::t_donor>>::_Vector_impl" }
%"struct.std::_Vector_base<gmx::analysismodules::(anonymous namespace)::t_donor, std::allocator<gmx::analysismodules::(anonymous namespace)::t_donor>>::_Vector_impl" = type { %"struct.std::_Vector_base<gmx::analysismodules::(anonymous namespace)::t_donor, std::allocator<gmx::analysismodules::(anonymous namespace)::t_donor>>::_Vector_impl_data" }
%"struct.std::_Vector_base<gmx::analysismodules::(anonymous namespace)::t_donor, std::allocator<gmx::analysismodules::(anonymous namespace)::t_donor>>::_Vector_impl_data" = type { ptr, ptr, ptr }
%"class.std::vector.18" = type { %"struct.std::_Vector_base.19" }
%"struct.std::_Vector_base.19" = type { %"struct.std::_Vector_base<int, std::allocator<int>>::_Vector_impl" }
%"struct.std::_Vector_base<int, std::allocator<int>>::_Vector_impl" = type { %"struct.std::_Vector_base<int, std::allocator<int>>::_Vector_impl_data" }
%"struct.std::_Vector_base<int, std::allocator<int>>::_Vector_impl_data" = type { ptr, ptr, ptr }
%"class.gmx::analysismodules::(anonymous namespace)::HbondStorage" = type { %"class.std::vector.23" }
%"class.std::vector.23" = type { %"struct.std::_Vector_base.24" }
%"struct.std::_Vector_base.24" = type { %"struct.std::_Vector_base<gmx::analysismodules::(anonymous namespace)::HbondStorageFrame, std::allocator<gmx::analysismodules::(anonymous namespace)::HbondStorageFrame>>::_Vector_impl" }
%"struct.std::_Vector_base<gmx::analysismodules::(anonymous namespace)::HbondStorageFrame, std::allocator<gmx::analysismodules::(anonymous namespace)::HbondStorageFrame>>::_Vector_impl" = type { %"struct.std::_Vector_base<gmx::analysismodules::(anonymous namespace)::HbondStorageFrame, std::allocator<gmx::analysismodules::(anonymous namespace)::HbondStorageFrame>>::_Vector_impl_data" }
%"struct.std::_Vector_base<gmx::analysismodules::(anonymous namespace)::HbondStorageFrame, std::allocator<gmx::analysismodules::(anonymous namespace)::HbondStorageFrame>>::_Vector_impl_data" = type { ptr, ptr, ptr }
%"class.gmx::AnalysisData" = type { %"class.gmx::AbstractAnalysisData", %"class.std::unique_ptr.36" }
%"class.gmx::AbstractAnalysisData" = type { ptr, %"class.std::unique_ptr.28" }
%"class.std::unique_ptr.28" = type { %"struct.std::__uniq_ptr_data.29" }
%"struct.std::__uniq_ptr_data.29" = type { %"class.std::__uniq_ptr_impl.30" }
%"class.std::__uniq_ptr_impl.30" = type { %"class.std::tuple.31" }
%"class.std::tuple.31" = type { %"struct.std::_Tuple_impl.32" }
%"struct.std::_Tuple_impl.32" = type { %"struct.std::_Head_base.35" }
%"struct.std::_Head_base.35" = type { ptr }
%"class.std::unique_ptr.36" = type { %"struct.std::__uniq_ptr_data.37" }
%"struct.std::__uniq_ptr_data.37" = type { %"class.std::__uniq_ptr_impl.38" }
%"class.std::__uniq_ptr_impl.38" = type { %"class.std::tuple.39" }
%"class.std::tuple.39" = type { %"struct.std::_Tuple_impl.40" }
%"struct.std::_Tuple_impl.40" = type { %"struct.std::_Head_base.43" }
%"struct.std::_Head_base.43" = type { ptr }
%"class.std::shared_ptr" = type { %"class.std::__shared_ptr" }
%"class.std::__shared_ptr" = type { ptr, %"class.std::__shared_count" }

; Function Attrs: mustprogress nounwind uwtable
define linkonce_odr noundef ptr @_ZNKSt12__shared_ptrIN3gmx33AnalysisDataSimpleHistogramModuleELN9__gnu_cxx12_Lock_policyE2EE3getEv(ptr noundef nonnull align 8 dereferenceable(16) %0) #7 comdat align 2 {
  %2 = alloca ptr, align 8
  store ptr %0, ptr %2, align 8
  %3 = load ptr, ptr %2, align 8
  %4 = getelementptr inbounds %"class.std::__shared_ptr", ptr %3, i32 0, i32 0
  %5 = load ptr, ptr %4, align 8
  ret ptr %5
}

; Function Attrs: mustprogress nounwind uwtable
define linkonce_odr noundef ptr @_ZNKSt19__shared_ptr_accessIN3gmx33AnalysisDataSimpleHistogramModuleELN9__gnu_cxx12_Lock_policyE2ELb0ELb0EE6_M_getEv(ptr noundef nonnull align 1 dereferenceable(1) %0) #7 comdat align 2 {
  %2 = alloca ptr, align 8
  store ptr %0, ptr %2, align 8
  %3 = load ptr, ptr %2, align 8
  %4 = call noundef ptr @_ZNKSt12__shared_ptrIN3gmx33AnalysisDataSimpleHistogramModuleELN9__gnu_cxx12_Lock_policyE2EE3getEv(ptr noundef nonnull align 8 dereferenceable(16) %3) #3
  ret ptr %4
}

; Function Attrs: mustprogress uwtable
define linkonce_odr void @_ZN3gmx24AbstractAverageHistogram4doneEv(ptr noundef nonnull align 8 dereferenceable(120) %0) #4 comdat align 2 {
  %2 = alloca ptr, align 8
  store ptr %0, ptr %2, align 8
  %3 = load ptr, ptr %2, align 8
  call void @_ZN3gmx25AbstractAnalysisArrayData11valuesReadyEv(ptr noundef nonnull align 8 dereferenceable(94) %3)
  ret void
}

; Function Attrs: mustprogress nounwind uwtable
define linkonce_odr noundef ptr @_ZNKSt19__shared_ptr_accessIN3gmx33AnalysisDataSimpleHistogramModuleELN9__gnu_cxx12_Lock_policyE2ELb0ELb0EEptEv(ptr noundef nonnull align 1 dereferenceable(1) %0) #7 comdat align 2 {
  %2 = alloca ptr, align 8
  store ptr %0, ptr %2, align 8
  %3 = load ptr, ptr %2, align 8
  %4 = call noundef ptr @_ZNKSt19__shared_ptr_accessIN3gmx33AnalysisDataSimpleHistogramModuleELN9__gnu_cxx12_Lock_policyE2ELb0ELb0EE6_M_getEv(ptr noundef nonnull align 1 dereferenceable(1) %3) #3
  ret ptr %4
}

; Function Attrs: mustprogress uwtable
define internal void @_ZN3gmx15analysismodules12_GLOBAL__N_15Hbond14finishAnalysisEi(ptr noundef nonnull align 8 dereferenceable(520) %0, i32 noundef %1) unnamed_addr #4 align 2 {
  %3 = alloca ptr, align 8
  %4 = alloca i32, align 4
  %5 = alloca ptr, align 8
  %6 = alloca ptr, align 8
  store ptr %0, ptr %3, align 8
  store i32 %1, ptr %4, align 4
  %7 = load ptr, ptr %3, align 8
  %8 = getelementptr inbounds %"class.gmx::analysismodules::(anonymous namespace)::Hbond", ptr %7, i32 0, i32 5
  %9 = call noundef zeroext i1 @_ZNKSt7__cxx1112basic_stringIcSt11char_traitsIcESaIcEE5emptyEv(ptr noundef nonnull align 8 dereferenceable(32) %8) #3
  br i1 %9, label %16, label %10

10:                                               ; preds = %2
  %11 = getelementptr inbounds %"class.gmx::analysismodules::(anonymous namespace)::Hbond", ptr %7, i32 0, i32 22
  %12 = call noundef ptr @_ZNKSt19__shared_ptr_accessIN3gmx33AnalysisDataSimpleHistogramModuleELN9__gnu_cxx12_Lock_policyE2ELb0ELb0EEptEv(ptr noundef nonnull align 1 dereferenceable(1) %11) #3
  %13 = call noundef nonnull align 8 dereferenceable(120) ptr @_ZN3gmx33AnalysisDataSimpleHistogramModule8averagerEv(ptr noundef nonnull align 8 dereferenceable(32) %12)
  store ptr %13, ptr %5, align 8
  %14 = load ptr, ptr %5, align 8
  call void @_ZN3gmx24AbstractAverageHistogram20normalizeProbabilityEv(ptr noundef nonnull align 8 dereferenceable(120) %14)
  %15 = load ptr, ptr %5, align 8
  call void @_ZN3gmx24AbstractAverageHistogram4doneEv(ptr noundef nonnull align 8 dereferenceable(120) %15)
  br label %16

16:                                               ; preds = %10, %2
  %17 = getelementptr inbounds %"class.gmx::analysismodules::(anonymous namespace)::Hbond", ptr %7, i32 0, i32 6
  %18 = call noundef zeroext i1 @_ZNKSt7__cxx1112basic_stringIcSt11char_traitsIcESaIcEE5emptyEv(ptr noundef nonnull align 8 dereferenceable(32) %17) #3
  br i1 %18, label %25, label %19

19:                                               ; preds = %16
  %20 = getelementptr inbounds %"class.gmx::analysismodules::(anonymous namespace)::Hbond", ptr %7, i32 0, i32 23
  %21 = call noundef ptr @_ZNKSt19__shared_ptr_accessIN3gmx33AnalysisDataSimpleHistogramModuleELN9__gnu_cxx12_Lock_policyE2ELb0ELb0EEptEv(ptr noundef nonnull align 1 dereferenceable(1) %20) #3
  %22 = call noundef nonnull align 8 dereferenceable(120) ptr @_ZN3gmx33AnalysisDataSimpleHistogramModule8averagerEv(ptr noundef nonnull align 8 dereferenceable(32) %21)
  store ptr %22, ptr %6, align 8
  %23 = load ptr, ptr %6, align 8
  call void @_ZN3gmx24AbstractAverageHistogram20normalizeProbabilityEv(ptr noundef nonnull align 8 dereferenceable(120) %23)
  %24 = load ptr, ptr %6, align 8
  call void @_ZN3gmx24AbstractAverageHistogram4doneEv(ptr noundef nonnull align 8 dereferenceable(120) %24)
  br label %25

25:                                               ; preds = %19, %16
  ret void
}