; Function Attrs: mustprogress uwtable
define internal void @_ZN3gmx15analysismodules12_GLOBAL__N_15Hbond14finishAnalysisEi(ptr noundef nonnull align 8 dereferenceable(520) %0, i32 %1) unnamed_addr #3 align 2 {
  %3 = getelementptr inbounds i8, ptr %0, i64 96
  %4 = tail call noundef zeroext i1 @_ZNKSt7__cxx1112basic_stringIcSt11char_traitsIcESaIcEE5emptyEv(ptr noundef nonnull align 8 dereferenceable(32) %3) #24
  br i1 %4, label %9, label %5

5:                                                ; preds = %2
  %6 = getelementptr inbounds i8, ptr %0, i64 488
  %7 = load ptr, ptr %6, align 8
  %8 = tail call noundef nonnull align 8 dereferenceable(120) ptr @_ZN3gmx33AnalysisDataSimpleHistogramModule8averagerEv(ptr noundef nonnull align 8 dereferenceable(32) %7)
  tail call void @_ZN3gmx24AbstractAverageHistogram20normalizeProbabilityEv(ptr noundef nonnull align 8 dereferenceable(120) %8)
  tail call void @_ZN3gmx25AbstractAnalysisArrayData11valuesReadyEv(ptr noundef nonnull align 8 dereferenceable(94) %8)
  br label %9

9:                                                ; preds = %5, %2
  %10 = getelementptr inbounds i8, ptr %0, i64 128
  %11 = tail call noundef zeroext i1 @_ZNKSt7__cxx1112basic_stringIcSt11char_traitsIcESaIcEE5emptyEv(ptr noundef nonnull align 8 dereferenceable(32) %10) #24
  br i1 %11, label %16, label %12

12:                                               ; preds = %9
  %13 = getelementptr inbounds i8, ptr %0, i64 504
  %14 = load ptr, ptr %13, align 8
  %15 = tail call noundef nonnull align 8 dereferenceable(120) ptr @_ZN3gmx33AnalysisDataSimpleHistogramModule8averagerEv(ptr noundef nonnull align 8 dereferenceable(32) %14)
  tail call void @_ZN3gmx24AbstractAverageHistogram20normalizeProbabilityEv(ptr noundef nonnull align 8 dereferenceable(120) %15)
  tail call void @_ZN3gmx25AbstractAnalysisArrayData11valuesReadyEv(ptr noundef nonnull align 8 dereferenceable(94) %15)
  br label %16

16:                                               ; preds = %12, %9
  ret void
}